; Function Attrs: nounwind uwtable
define ptr @l_Lean_FileMap_toPosition_toColumn(ptr noundef %0, ptr noundef %1, ptr noundef %2, ptr noundef %3) local_unnamed_addr #0 {
  %5 = ptrtoint ptr %2 to i64
  %6 = and i64 %5, 1
  %.not64 = icmp eq i64 %6, 0
  br i1 %.not64, label %lean_nat_eq.exit.thread53, label %.lr.ph, !prof !16

.lr.ph:                                           ; preds = %4
  %7 = ptrtoint ptr %0 to i64
  %8 = and i64 %7, 1
  %.not57 = icmp eq i64 %8, 0
  %9 = getelementptr i8, ptr %1, i64 8
  br i1 %.not57, label %lean_nat_eq.exit.us, label %lean_nat_eq.exit.thread, !prof !15

lean_nat_eq.exit.us:                              ; preds = %.lr.ph, %lean_dec.exit28.us
  %10 = phi i64 [ %35, %lean_dec.exit28.us ], [ %5, %.lr.ph ]
  %.02166.us = phi ptr [ %14, %lean_dec.exit28.us ], [ %2, %.lr.ph ]
  %.02465.us = phi ptr [ %.226.us, %lean_dec.exit28.us ], [ %3, %.lr.ph ]
  %11 = tail call zeroext i1 @lean_nat_big_eq(ptr noundef %.02166.us, ptr noundef %0) #6
  br i1 %11, label %.thread45, label %lean_string_utf8_at_end.exit.us

lean_string_utf8_at_end.exit.us:                  ; preds = %lean_nat_eq.exit.us
  %12 = lshr i64 %10, 1
  %.val.i.us = load i64, ptr %9, align 8, !tbaa !13
  %13 = add i64 %.val.i.us, -1
  %.not59.us = icmp ult i64 %12, %13
  br i1 %.not59.us, label %lean_dec.exit29.us, label %.thread45

lean_dec.exit29.us:                               ; preds = %lean_string_utf8_at_end.exit.us
  %14 = tail call ptr @lean_string_utf8_next(ptr noundef nonnull %1, ptr noundef %.02166.us) #6
  %15 = ptrtoint ptr %.02465.us to i64
  %16 = and i64 %15, 1
  %.not60.us = icmp eq i64 %16, 0
  br i1 %.not60.us, label %27, label %17, !prof !15

17:                                               ; preds = %lean_dec.exit29.us
  %18 = lshr i64 %15, 1
  %19 = add nuw i64 %18, 1
  %20 = icmp sgt i64 %19, -1
  br i1 %20, label %23, label %21, !prof !12

21:                                               ; preds = %17
  %22 = tail call ptr @lean_big_usize_to_nat(i64 noundef range(i64 0, -1) %19) #6
  br label %lean_dec.exit28.us

23:                                               ; preds = %17
  %24 = shl nuw i64 %19, 1
  %25 = or disjoint i64 %24, 1
  %26 = inttoptr i64 %25 to ptr
  br label %lean_dec.exit28.us

27:                                               ; preds = %lean_dec.exit29.us
  %28 = tail call ptr @lean_nat_big_add(ptr noundef %.02465.us, ptr noundef nonnull inttoptr (i64 3 to ptr)) #6
  %29 = load i32, ptr %.02465.us, align 4, !tbaa !9
  %30 = icmp sgt i32 %29, 1
  br i1 %30, label %33, label %31, !prof !12

31:                                               ; preds = %27
  %.not.i30.us = icmp eq i32 %29, 0
  br i1 %.not.i30.us, label %lean_dec.exit28.us, label %32

32:                                               ; preds = %31
  tail call void @lean_dec_ref_cold(ptr noundef nonnull %.02465.us) #6
  br label %lean_dec.exit28.us

33:                                               ; preds = %27
  %34 = add nsw i32 %29, -1
  store i32 %34, ptr %.02465.us, align 4, !tbaa !9
  br label %lean_dec.exit28.us

lean_dec.exit28.us:                               ; preds = %33, %32, %31, %23, %21
  %.226.us = phi ptr [ %28, %33 ], [ %28, %31 ], [ %28, %32 ], [ %22, %21 ], [ %26, %23 ]
  %35 = ptrtoint ptr %14 to i64
  %36 = and i64 %35, 1
  %.not.us = icmp eq i64 %36, 0
  br i1 %.not.us, label %lean_nat_eq.exit.thread53, label %lean_nat_eq.exit.us, !prof !17

lean_nat_eq.exit.thread:                          ; preds = %.lr.ph, %lean_dec.exit28
  %37 = phi i64 [ %74, %lean_dec.exit28 ], [ %5, %.lr.ph ]
  %.02166 = phi ptr [ %43, %lean_dec.exit28 ], [ %2, %.lr.ph ]
  %.02465 = phi ptr [ %.226, %lean_dec.exit28 ], [ %3, %.lr.ph ]
  %.not58 = icmp eq ptr %.02166, %0
  br i1 %.not58, label %.thread45, label %lean_string_utf8_at_end.exit

lean_nat_eq.exit.thread53:                        ; preds = %lean_dec.exit28, %lean_dec.exit28.us, %4
  %.024.lcssa = phi ptr [ %3, %4 ], [ %.226.us, %lean_dec.exit28.us ], [ %.226, %lean_dec.exit28 ]
  %.021.lcssa = phi ptr [ %2, %4 ], [ %14, %lean_dec.exit28.us ], [ %43, %lean_dec.exit28 ]
  %38 = tail call zeroext i1 @lean_nat_big_eq(ptr noundef %.021.lcssa, ptr noundef %0) #6
  %39 = load i32, ptr %.021.lcssa, align 4, !tbaa !9
  %40 = icmp sgt i32 %39, 1
  br i1 %38, label %69, label %64

lean_string_utf8_at_end.exit:                     ; preds = %lean_nat_eq.exit.thread
  %41 = lshr i64 %37, 1
  %.val.i = load i64, ptr %9, align 8, !tbaa !13
  %42 = add i64 %.val.i, -1
  %.not59 = icmp ult i64 %41, %42
  br i1 %.not59, label %lean_dec.exit29, label %.thread45

lean_dec.exit29:                                  ; preds = %lean_string_utf8_at_end.exit
  %43 = tail call ptr @lean_string_utf8_next(ptr noundef nonnull %1, ptr noundef %.02166) #6
  %44 = ptrtoint ptr %.02465 to i64
  %45 = and i64 %44, 1
  %.not60 = icmp eq i64 %45, 0
  br i1 %.not60, label %56, label %46, !prof !15

46:                                               ; preds = %lean_dec.exit29
  %47 = lshr i64 %44, 1
  %48 = add nuw i64 %47, 1
  %49 = icmp sgt i64 %48, -1
  br i1 %49, label %50, label %54, !prof !12

50:                                               ; preds = %46
  %51 = shl nuw i64 %48, 1
  %52 = or disjoint i64 %51, 1
  %53 = inttoptr i64 %52 to ptr
  br label %lean_dec.exit28

54:                                               ; preds = %46
  %55 = tail call ptr @lean_big_usize_to_nat(i64 noundef range(i64 0, -1) %48) #6
  br label %lean_dec.exit28

56:                                               ; preds = %lean_dec.exit29
  %57 = tail call ptr @lean_nat_big_add(ptr noundef %.02465, ptr noundef nonnull inttoptr (i64 3 to ptr)) #6
  %58 = load i32, ptr %.02465, align 4, !tbaa !9
  %59 = icmp sgt i32 %58, 1
  br i1 %59, label %60, label %62, !prof !12

60:                                               ; preds = %56
  %61 = add nsw i32 %58, -1
  store i32 %61, ptr %.02465, align 4, !tbaa !9
  br label %lean_dec.exit28

62:                                               ; preds = %56
  %.not.i30 = icmp eq i32 %58, 0
  br i1 %.not.i30, label %lean_dec.exit28, label %63

63:                                               ; preds = %62
  tail call void @lean_dec_ref_cold(ptr noundef nonnull %.02465) #6
  br label %lean_dec.exit28

64:                                               ; preds = %lean_nat_eq.exit.thread53
  br i1 %40, label %65, label %67, !prof !12

65:                                               ; preds = %64
  %66 = add nsw i32 %39, -1
  store i32 %66, ptr %.021.lcssa, align 4, !tbaa !9
  br label %.thread45

67:                                               ; preds = %64
  %.not.i32 = icmp eq i32 %39, 0
  br i1 %.not.i32, label %.thread45, label %68

68:                                               ; preds = %67
  tail call void @lean_dec_ref_cold(ptr noundef nonnull %.021.lcssa) #6
  br label %.thread45

69:                                               ; preds = %lean_nat_eq.exit.thread53
  br i1 %40, label %70, label %72, !prof !12

70:                                               ; preds = %69
  %71 = add nsw i32 %39, -1
  store i32 %71, ptr %.021.lcssa, align 4, !tbaa !9
  br label %.thread45

72:                                               ; preds = %69
  %.not.i34 = icmp eq i32 %39, 0
  br i1 %.not.i34, label %.thread45, label %73

73:                                               ; preds = %72
  tail call void @lean_dec_ref_cold(ptr noundef nonnull %.021.lcssa) #6
  br label %.thread45

lean_dec.exit28:                                  ; preds = %50, %54, %60, %62, %63
  %.226 = phi ptr [ %57, %60 ], [ %57, %62 ], [ %57, %63 ], [ %55, %54 ], [ %53, %50 ]
  %74 = ptrtoint ptr %43 to i64
  %75 = and i64 %74, 1
  %.not = icmp eq i64 %75, 0
  br i1 %.not, label %lean_nat_eq.exit.thread53, label %lean_nat_eq.exit.thread, !prof !17

.thread45:                                        ; preds = %lean_nat_eq.exit.thread, %lean_string_utf8_at_end.exit, %lean_string_utf8_at_end.exit.us, %lean_nat_eq.exit.us, %68, %67, %65, %73, %72, %70
  %.02463 = phi ptr [ %.024.lcssa, %68 ], [ %.024.lcssa, %67 ], [ %.024.lcssa, %65 ], [ %.024.lcssa, %73 ], [ %.024.lcssa, %72 ], [ %.024.lcssa, %70 ], [ %.02465.us, %lean_nat_eq.exit.us ], [ %.02465.us, %lean_string_utf8_at_end.exit.us ], [ %.02465, %lean_string_utf8_at_end.exit ], [ %.02465, %lean_nat_eq.exit.thread ]
  ret ptr %.02463
}